---
triple:          'arm64-apple-darwin'
binary-path:     '/Users/anthai/c++xgboost/src/main'
relocations:
  - { offset: 0x19, size: 0x8, addend: 0x0, symName: _emutls_destroy, symObjAddr: 0x0, symBinAddr: 0x100000F40, symSize: 0x60 }
  - { offset: 0x228, size: 0x8, addend: 0x0, symName: _emutls_mutex, symObjAddr: 0x300, symBinAddr: 0x100034010, symSize: 0x0 }
  - { offset: 0x23E, size: 0x8, addend: 0x0, symName: _emutls_key, symObjAddr: 0x2638, symBinAddr: 0x100034CC8, symSize: 0x0 }
  - { offset: 0x254, size: 0x8, addend: 0x0, symName: _emutls_size, symObjAddr: 0x2630, symBinAddr: 0x100034CC0, symSize: 0x0 }
  - { offset: 0x26B, size: 0x8, addend: 0x0, symName: ___emutls_register_common, symObjAddr: 0x2AC, symBinAddr: 0x1000011EC, symSize: 0x40 }
  - { offset: 0x2CA, size: 0x8, addend: 0x0, symName: ___emutls_get_address, symObjAddr: 0x8C, symBinAddr: 0x100000FCC, symSize: 0x220 }
  - { offset: 0x32F, size: 0x8, addend: 0x0, symName: _once.0, symObjAddr: 0x2F0, symBinAddr: 0x100034000, symSize: 0x0 }
  - { offset: 0x4C8, size: 0x8, addend: 0x0, symName: _emutls_init, symObjAddr: 0x60, symBinAddr: 0x100000FA0, symSize: 0x2C }
  - { offset: 0x4DF, size: 0x8, addend: 0x0, symName: _emutls_init, symObjAddr: 0x60, symBinAddr: 0x100000FA0, symSize: 0x2C }
  - { offset: 0x506, size: 0x8, addend: 0x0, symName: _emutls_destroy, symObjAddr: 0x0, symBinAddr: 0x100000F40, symSize: 0x60 }
  - { offset: 0x44482, size: 0x8, addend: 0x0, symName: __ZNSt9__unicode9__v16_0_022_Grapheme_cluster_viewISt17basic_string_viewIcSt11char_traitsIcEEE9_IteratorppEv, symObjAddr: 0xBFA0, symBinAddr: 0x10000B100, symSize: 0x844 }
  - { offset: 0x451BE, size: 0x8, addend: 0x0, symName: __ZNSt8__format23__write_escaped_unicodeIcNS_10_Sink_iterIcEEEET0_S3_St17basic_string_viewIT_St11char_traitsIS5_EENS_10_Term_charE, symObjAddr: 0x7AE0, symBinAddr: 0x100007A20, symSize: 0x608 }
  - { offset: 0x46F18, size: 0x8, addend: 0x0, symName: __ZNKSt8__format15__formatter_intIcE13_M_format_intINS_10_Sink_iterIcEEEENSt20basic_format_contextIT_cE8iteratorESt17basic_string_viewIcSt11char_traitsIcEEmRS7_, symObjAddr: 0x8750, symBinAddr: 0x100008030, symSize: 0x2F0 }
  - { offset: 0x47E97, size: 0x8, addend: 0x0, symName: __ZNSt8__format9_Seq_sinkINSt7__cxx1112basic_stringIcSt11char_traitsIcESaIcEEEE10_M_reserveEm, symObjAddr: 0x3CCC, symBinAddr: 0x100004CCC, symSize: 0x200 }
  - { offset: 0x49841, size: 0x8, addend: 0x0, symName: __ZNKSt8__format15__formatter_strIcE6formatINS_10_Sink_iterIcEEEET_St17basic_string_viewIcSt11char_traitsIcEERSt20basic_format_contextIS5_cE, symObjAddr: 0xC7E4, symBinAddr: 0x10000B944, symSize: 0xCFC }
  - { offset: 0x4BC19, size: 0x8, addend: 0x0, symName: __ZNKSt8__format14__formatter_fpIcE6formatIdNS_10_Sink_iterIcEEEENSt20basic_format_contextIT0_cE8iteratorET_RS7_, symObjAddr: 0x9EE4, symBinAddr: 0x100009044, symSize: 0x105C }
  - { offset: 0x4E020, size: 0x8, addend: 0x0, symName: __ZNKSt8__format14__formatter_fpIcE6formatIfNS_10_Sink_iterIcEEEENSt20basic_format_contextIT0_cE8iteratorET_RS7_, symObjAddr: 0xAF40, symBinAddr: 0x10000A0A0, symSize: 0x1060 }
  - { offset: 0x50478, size: 0x8, addend: 0x0, symName: __ZNSt8__format14__formatter_fpIcE5parseERSt26basic_format_parse_contextIcE, symObjAddr: 0x6260, symBinAddr: 0x100006FA0, symSize: 0x764 }
  - { offset: 0x51848, size: 0x8, addend: 0x0, symName: __ZNSt17_Function_handlerIFSt10unique_ptrINSt13__future_base12_Result_baseENS2_8_DeleterEEvENS1_12_Task_setterIS0_INS1_7_ResultI16bestFeatureSplitEES3_EZNS1_11_Task_stateISt5_BindIFM4TreeFS8_RKSt6vectorIiSaIiEEiEPSD_SG_mEESF_FS8_vEE14_M_run_delayedESt8weak_ptrINS1_13_State_baseV2EEEUlvE_S8_EEE9_M_invokeERKSt9_Any_data, symObjAddr: 0x7E0, symBinAddr: 0x100001A20, symSize: 0x100 }
  - { offset: 0x51EED, size: 0x8, addend: 0x0, symName: __ZNSt17_Function_handlerIFSt10unique_ptrINSt13__future_base12_Result_baseENS2_8_DeleterEEvENS1_12_Task_setterIS0_INS1_7_ResultI16bestFeatureSplitEES3_EZNS1_11_Task_stateISt5_BindIFM4TreeFS8_RKSt6vectorIiSaIiEEiEPSD_SG_mEESF_FS8_vEE6_M_runEvEUlvE_S8_EEE9_M_invokeERKSt9_Any_data, symObjAddr: 0x204, symBinAddr: 0x100001444, symSize: 0xFC }
  - { offset: 0x53088, size: 0x8, addend: 0x0, symName: __ZNSt13__future_base7_ResultI16bestFeatureSplitED0Ev, symObjAddr: 0x180, symBinAddr: 0x1000013C0, symSize: 0x40 }
  - { offset: 0x530AA, size: 0x8, addend: 0x0, symName: __ZNSt13__future_base7_ResultI16bestFeatureSplitED0Ev, symObjAddr: 0x180, symBinAddr: 0x1000013C0, symSize: 0x40 }
  - { offset: 0x530D4, size: 0x8, addend: 0x0, symName: __ZNSt13__future_base7_ResultI16bestFeatureSplitED1Ev, symObjAddr: 0x160, symBinAddr: 0x1000013A0, symSize: 0x20 }
  - { offset: 0x5386A, size: 0x8, addend: 0x0, symName: __ZNSt23_Sp_counted_ptr_inplaceISt13packaged_taskIF16bestFeatureSplitvEESaIvELN9__gnu_cxx12_Lock_policyE2EE14_M_get_deleterERKSt9type_info, symObjAddr: 0x5F0, symBinAddr: 0x100001830, symSize: 0x70 }
  - { offset: 0x5394A, size: 0x8, addend: 0x0, symName: __ZNSt23_Sp_counted_ptr_inplaceISt13packaged_taskIF16bestFeatureSplitvEESaIvELN9__gnu_cxx12_Lock_policyE2EE10_M_destroyEv, symObjAddr: 0xF0, symBinAddr: 0x100001330, symSize: 0x10 }
  - { offset: 0x53990, size: 0x8, addend: 0x0, symName: __ZNSt23_Sp_counted_ptr_inplaceISt13packaged_taskIF16bestFeatureSplitvEESaIvELN9__gnu_cxx12_Lock_policyE2EE10_M_destroyEv, symObjAddr: 0xF0, symBinAddr: 0x100001330, symSize: 0x10 }
  - { offset: 0x539B0, size: 0x8, addend: 0x0, symName: __ZNSt23_Sp_counted_ptr_inplaceISt13packaged_taskIF16bestFeatureSplitvEESaIvELN9__gnu_cxx12_Lock_policyE2EE10_M_destroyEv, symObjAddr: 0xF0, symBinAddr: 0x100001330, symSize: 0x10 }
  - { offset: 0x539E0, size: 0x8, addend: 0x0, symName: __ZNSt23_Sp_counted_ptr_inplaceISt13packaged_taskIF16bestFeatureSplitvEESaIvELN9__gnu_cxx12_Lock_policyE2EE10_M_destroyEv, symObjAddr: 0xF0, symBinAddr: 0x100001330, symSize: 0x10 }
  - { offset: 0x53A11, size: 0x8, addend: 0x0, symName: __ZNSt23_Sp_counted_ptr_inplaceISt13packaged_taskIF16bestFeatureSplitvEESaIvELN9__gnu_cxx12_Lock_policyE2EE10_M_destroyEv, symObjAddr: 0xF0, symBinAddr: 0x100001330, symSize: 0x10 }
  - { offset: 0x53A4A, size: 0x8, addend: 0x0, symName: __ZNSt23_Sp_counted_ptr_inplaceISt13packaged_taskIF16bestFeatureSplitvEESaIvELN9__gnu_cxx12_Lock_policyE2EE10_M_disposeEv, symObjAddr: 0x38C0, symBinAddr: 0x1000048C0, symSize: 0x300 }
  - { offset: 0x549C2, size: 0x8, addend: 0x0, symName: __ZNSt23_Sp_counted_ptr_inplaceISt13packaged_taskIF16bestFeatureSplitvEESaIvELN9__gnu_cxx12_Lock_policyE2EED0Ev, symObjAddr: 0xD0, symBinAddr: 0x100001310, symSize: 0x10 }
  - { offset: 0x549ED, size: 0x8, addend: 0x0, symName: __ZNSt23_Sp_counted_ptr_inplaceISt13packaged_taskIF16bestFeatureSplitvEESaIvELN9__gnu_cxx12_Lock_policyE2EED1Ev, symObjAddr: 0xC0, symBinAddr: 0x100001300, symSize: 0x4 }
  - { offset: 0x54A12, size: 0x8, addend: 0x0, symName: __ZNSt13__future_base11_Task_stateISt5_BindIFM4TreeF16bestFeatureSplitRKSt6vectorIiSaIiEEiEPS2_S6_mEES5_FS3_vEE8_M_resetEv, symObjAddr: 0x610C, symBinAddr: 0x100006E4C, symSize: 0x154 }
  - { offset: 0x55162, size: 0x8, addend: 0x0, symName: __ZNSt13__future_base11_Task_stateISt5_BindIFM4TreeF16bestFeatureSplitRKSt6vectorIiSaIiEEiEPS2_S6_mEES5_FS3_vEE14_M_run_delayedESt8weak_ptrINS_13_State_baseV2EE, symObjAddr: 0x2FAC, symBinAddr: 0x10000408C, symSize: 0x164 }
  - { offset: 0x5524A, size: 0x8, addend: 0x0, symName: __ZNSt13__future_base11_Task_stateISt5_BindIFM4TreeF16bestFeatureSplitRKSt6vectorIiSaIiEEiEPS2_S6_mEES5_FS3_vEE14_M_run_delayedESt8weak_ptrINS_13_State_baseV2EE, symObjAddr: 0x2FAC, symBinAddr: 0x10000408C, symSize: 0x164 }
  - { offset: 0x55851, size: 0x8, addend: 0x0, symName: __ZNSt23_Sp_counted_ptr_inplaceINSt13__future_base11_Task_stateISt5_BindIFM4TreeF16bestFeatureSplitRKSt6vectorIiSaIiEEiEPS3_S7_mEES6_FS4_vEEES6_LN9__gnu_cxx12_Lock_policyE2EE14_M_get_deleterERKSt9type_info, symObjAddr: 0x580, symBinAddr: 0x1000017C0, symSize: 0x70 }
  - { offset: 0x55931, size: 0x8, addend: 0x0, symName: __ZNSt23_Sp_counted_ptr_inplaceINSt13__future_base11_Task_stateISt5_BindIFM4TreeF16bestFeatureSplitRKSt6vectorIiSaIiEEiEPS3_S7_mEES6_FS4_vEEES6_LN9__gnu_cxx12_Lock_policyE2EE10_M_destroyEv, symObjAddr: 0xE8, symBinAddr: 0x100001328, symSize: 0x8 }
  - { offset: 0x55977, size: 0x8, addend: 0x0, symName: __ZNSt23_Sp_counted_ptr_inplaceINSt13__future_base11_Task_stateISt5_BindIFM4TreeF16bestFeatureSplitRKSt6vectorIiSaIiEEiEPS3_S7_mEES6_FS4_vEEES6_LN9__gnu_cxx12_Lock_policyE2EE10_M_destroyEv, symObjAddr: 0xE8, symBinAddr: 0x100001328, symSize: 0x8 }
  - { offset: 0x55997, size: 0x8, addend: 0x0, symName: __ZNSt23_Sp_counted_ptr_inplaceINSt13__future_base11_Task_stateISt5_BindIFM4TreeF16bestFeatureSplitRKSt6vectorIiSaIiEEiEPS3_S7_mEES6_FS4_vEEES6_LN9__gnu_cxx12_Lock_policyE2EE10_M_destroyEv, symObjAddr: 0xE8, symBinAddr: 0x100001328, symSize: 0x8 }
  - { offset: 0x559C7, size: 0x8, addend: 0x0, symName: __ZNSt23_Sp_counted_ptr_inplaceINSt13__future_base11_Task_stateISt5_BindIFM4TreeF16bestFeatureSplitRKSt6vectorIiSaIiEEiEPS3_S7_mEES6_FS4_vEEES6_LN9__gnu_cxx12_Lock_policyE2EE10_M_destroyEv, symObjAddr: 0xE8, symBinAddr: 0x100001328, symSize: 0x8 }
  - { offset: 0x559F8, size: 0x8, addend: 0x0, symName: __ZNSt23_Sp_counted_ptr_inplaceINSt13__future_base11_Task_stateISt5_BindIFM4TreeF16bestFeatureSplitRKSt6vectorIiSaIiEEiEPS3_S7_mEES6_FS4_vEEES6_LN9__gnu_cxx12_Lock_policyE2EE10_M_destroyEv, symObjAddr: 0xE8, symBinAddr: 0x100001328, symSize: 0x8 }
  - { offset: 0x55A31, size: 0x8, addend: 0x0, symName: __ZNSt23_Sp_counted_ptr_inplaceINSt13__future_base11_Task_stateISt5_BindIFM4TreeF16bestFeatureSplitRKSt6vectorIiSaIiEEiEPS3_S7_mEES6_FS4_vEEES6_LN9__gnu_cxx12_Lock_policyE2EE10_M_disposeEv, symObjAddr: 0x8E0, symBinAddr: 0x100001B20, symSize: 0xE0 }
  - { offset: 0x55E87, size: 0x8, addend: 0x0, symName: __ZNSt23_Sp_counted_ptr_inplaceINSt13__future_base11_Task_stateISt5_BindIFM4TreeF16bestFeatureSplitRKSt6vectorIiSaIiEEiEPS3_S7_mEES6_FS4_vEEES6_LN9__gnu_cxx12_Lock_policyE2EED0Ev, symObjAddr: 0xE0, symBinAddr: 0x100001320, symSize: 0x8 }
  - { offset: 0x55EB2, size: 0x8, addend: 0x0, symName: __ZNSt23_Sp_counted_ptr_inplaceINSt13__future_base11_Task_stateISt5_BindIFM4TreeF16bestFeatureSplitRKSt6vectorIiSaIiEEiEPS3_S7_mEES6_FS4_vEEES6_LN9__gnu_cxx12_Lock_policyE2EED1Ev, symObjAddr: 0xB0, symBinAddr: 0x1000012F0, symSize: 0x10 }
  - { offset: 0x55EF5, size: 0x8, addend: 0x0, symName: __ZNSt13__future_base11_Task_stateISt5_BindIFM4TreeF16bestFeatureSplitRKSt6vectorIiSaIiEEiEPS2_S6_mEES5_FS3_vEED0Ev, symObjAddr: 0x9C0, symBinAddr: 0x100001C00, symSize: 0xE0 }
  - { offset: 0x562EA, size: 0x8, addend: 0x0, symName: __ZNSt13__future_base11_Task_stateISt5_BindIFM4TreeF16bestFeatureSplitRKSt6vectorIiSaIiEEiEPS2_S6_mEES5_FS3_vEED1Ev, symObjAddr: 0x700, symBinAddr: 0x100001940, symSize: 0xE0 }
  - { offset: 0x569A8, size: 0x8, addend: 0x0, symName: __ZNSt13__future_base13_State_baseV2D0Ev, symObjAddr: 0x6B0, symBinAddr: 0x1000018F0, symSize: 0x50 }
  - { offset: 0x569CA, size: 0x8, addend: 0x0, symName: __ZNSt13__future_base13_State_baseV2D0Ev, symObjAddr: 0x6B0, symBinAddr: 0x1000018F0, symSize: 0x50 }
  - { offset: 0x56A8A, size: 0x8, addend: 0x0, symName: __ZNSt13__future_base13_State_baseV2D1Ev, symObjAddr: 0x1C0, symBinAddr: 0x100001400, symSize: 0x44 }
  - { offset: 0x56B4B, size: 0x8, addend: 0x0, symName: __ZNSt13__future_base13_State_baseV2D2Ev, symObjAddr: 0x4F60, symBinAddr: 0x100005CA0, symSize: 0x44 }
  - { offset: 0x57F12, size: 0x8, addend: 0x0, symName: __ZNSt17_Function_handlerIFvvEZN10ThreadPool7enqueueIM4TreeF16bestFeatureSplitRKSt6vectorIiSaIiEEiEJPS3_S9_RmEEESt6futureINSt13invoke_resultIT_JDpT0_EE4typeEEOSG_DpOSH_EUlvE_E10_M_managerERSt9_Any_dataRKSR_St18_Manager_operation, symObjAddr: 0x1E44, symBinAddr: 0x100002F24, symSize: 0xBC }
  - { offset: 0x58222, size: 0x8, addend: 0x0, symName: __ZNSt17_Function_handlerIFvvEZN10ThreadPool7enqueueIM4TreeF16bestFeatureSplitRKSt6vectorIiSaIiEEiEJPS3_S9_RmEEESt6futureINSt13invoke_resultIT_JDpT0_EE4typeEEOSG_DpOSH_EUlvE_E9_M_invokeERKSt9_Any_data, symObjAddr: 0x2080, symBinAddr: 0x100003160, symSize: 0x140 }
  - { offset: 0x58DFD, size: 0x8, addend: 0x0, symName: __ZNSt5dequeISt8functionIFvvEESaIS2_EE17_M_reallocate_mapEmb, symObjAddr: 0x3FE8, symBinAddr: 0x100004EE8, symSize: 0x1A0 }
  - { offset: 0x5AA85, size: 0x8, addend: 0x0, symName: __ZNSt8__format5_SinkIcE7_M_bumpEm, symObjAddr: 0xA0, symBinAddr: 0x1000012E0, symSize: 0x10 }
  - { offset: 0x5AAB9, size: 0x8, addend: 0x0, symName: __ZNSt8__format5_SinkIcE7_M_bumpEm, symObjAddr: 0xA0, symBinAddr: 0x1000012E0, symSize: 0x10 }
  - { offset: 0x5AC26, size: 0x8, addend: 0x0, symName: __ZNSt7__cxx1112basic_stringIcSt11char_traitsIcESaIcEE10_M_replaceEmmPKcm, symObjAddr: 0x374C, symBinAddr: 0x10000474C, symSize: 0x174 }
  - { offset: 0x5C13C, size: 0x8, addend: 0x0, symName: __ZNSt8__format5_SinkIcE10_M_reserveEm, symObjAddr: 0x20, symBinAddr: 0x100001260, symSize: 0x80 }
  - { offset: 0x5C174, size: 0x8, addend: 0x0, symName: __ZNSt8__format5_SinkIcE10_M_reserveEm, symObjAddr: 0x20, symBinAddr: 0x100001260, symSize: 0x80 }
  - { offset: 0x5C194, size: 0x8, addend: 0x0, symName: __ZNSt8__format5_SinkIcE10_M_reserveEm, symObjAddr: 0x20, symBinAddr: 0x100001260, symSize: 0x80 }
  - { offset: 0x5D5EA, size: 0x8, addend: 0x0, symName: __ZNSt8__format15__formatter_strIcE5parseERSt26basic_format_parse_contextIcE, symObjAddr: 0x47C0, symBinAddr: 0x100005500, symSize: 0x7A0 }
  - { offset: 0x5E724, size: 0x8, addend: 0x0, symName: __ZNSt15__exception_ptr12__dest_thunkISt12future_errorEEvPv, symObjAddr: 0xC, symBinAddr: 0x10000124C, symSize: 0x14 }
  - { offset: 0x5F1F8, size: 0x8, addend: 0x0, symName: __ZNSt16basic_format_argISt20basic_format_contextINSt8__format10_Sink_iterIcEEcEE8_M_visitIZNS1_15__do_vformat_toIS3_cS4_EET_S8_St17basic_string_viewIT0_St11char_traitsISA_EERKSt17basic_format_argsIT1_EPKSt6localeEUlRS8_E_EEDcOS8_NS1_6_Arg_tE, symObjAddr: 0x2824, symBinAddr: 0x100003904, symSize: 0x760 }
  - { offset: 0x5FF2F, size: 0x8, addend: 0x0, symName: __ZNSt8__detail12__to_chars_8ImEESt15to_chars_resultPcS2_T_, symObjAddr: 0x2780, symBinAddr: 0x100003860, symSize: 0xA4 }
  - { offset: 0x5FFF0, size: 0x8, addend: 0x0, symName: __ZNSt8__detail13__to_chars_10ImEESt15to_chars_resultPcS2_T_, symObjAddr: 0x25AC, symBinAddr: 0x10000368C, symSize: 0x1D4 }
  - { offset: 0x6012B, size: 0x8, addend: 0x0, symName: __ZNSt8__detail13__to_chars_16ImEESt15to_chars_resultPcS2_T_, symObjAddr: 0x24E4, symBinAddr: 0x1000035C4, symSize: 0xC8 }
  - { offset: 0x60270, size: 0x8, addend: 0x0, symName: __ZNSt8__detail12__to_chars_8IjEESt15to_chars_resultPcS2_T_, symObjAddr: 0x2440, symBinAddr: 0x100003520, symSize: 0xA4 }
  - { offset: 0x60331, size: 0x8, addend: 0x0, symName: __ZNSt8__detail13__to_chars_10IjEESt15to_chars_resultPcS2_T_, symObjAddr: 0x2288, symBinAddr: 0x100003368, symSize: 0x1B8 }
  - { offset: 0x61264, size: 0x8, addend: 0x0, symName: __ZSt9call_onceIMNSt13__future_base13_State_baseV2EFvPSt8functionIFSt10unique_ptrINS0_12_Result_baseENS4_8_DeleterEEvEEPbEJPS1_S9_SA_EEvRSt9once_flagOT_DpOT0_, symObjAddr: 0x1F00, symBinAddr: 0x100002FE0, symSize: 0x8C }
  - { offset: 0x618FA, size: 0x8, addend: 0x0, symName: __ZNSt16_Sp_counted_baseILN9__gnu_cxx12_Lock_policyE2EE24_M_release_last_use_coldEv, symObjAddr: 0x1D88, symBinAddr: 0x100002E68, symSize: 0x58 }
  - { offset: 0x61C1E, size: 0x8, addend: 0x0, symName: __ZNK4Tree7predictERKSt6vectorIdSaIdEE, symObjAddr: 0x1C60, symBinAddr: 0x100002D40, symSize: 0x60 }
  - { offset: 0x61D51, size: 0x8, addend: 0x0, symName: __ZNK4Tree7predictERKSt6vectorIdSaIdEE, symObjAddr: 0x1C60, symBinAddr: 0x100002D40, symSize: 0x60 }
  - { offset: 0x61D74, size: 0x8, addend: 0x0, symName: __ZNK4Tree7predictERKSt6vectorIdSaIdEE, symObjAddr: 0x1C60, symBinAddr: 0x100002D40, symSize: 0x60 }
  - { offset: 0x61D98, size: 0x8, addend: 0x0, symName: __ZNK4Tree7predictERKSt6vectorIdSaIdEE, symObjAddr: 0x1C60, symBinAddr: 0x100002D40, symSize: 0x60 }
  - { offset: 0x61E4F, size: 0x8, addend: 0x0, symName: __ZN4Tree13computeWeightERKSt6vectorIiSaIiEE, symObjAddr: 0x1AE0, symBinAddr: 0x100002BC0, symSize: 0x130 }
  - { offset: 0x6200C, size: 0x8, addend: 0x0, symName: __ZN4Tree13computeWeightERKSt6vectorIiSaIiEE, symObjAddr: 0x1AE0, symBinAddr: 0x100002BC0, symSize: 0x130 }
  - { offset: 0x6202F, size: 0x8, addend: 0x0, symName: __ZN4Tree13computeWeightERKSt6vectorIiSaIiEE, symObjAddr: 0x1AE0, symBinAddr: 0x100002BC0, symSize: 0x130 }
  - { offset: 0x629E3, size: 0x8, addend: 0x0, symName: __ZN4Tree16findFeatureSplitERKSt6vectorIiSaIiEEi, symObjAddr: 0xB70, symBinAddr: 0x100001DB0, symSize: 0x9F0 }
  - { offset: 0x62C1C, size: 0x8, addend: 0x0, symName: __ZZN4Tree16findFeatureSplitERKSt6vectorIiSaIiEEiENKUliE_clEi, symObjAddr: 0xAA0, symBinAddr: 0x100001CE0, symSize: 0xD0 }
  - { offset: 0x66191, size: 0x8, addend: 0x0, symName: __ZN4Tree13findBestSplitERKSt6vectorIiSaIiEE, symObjAddr: 0x4FA4, symBinAddr: 0x100005CE4, symSize: 0x97C }
  - { offset: 0x6974A, size: 0x8, addend: 0x0, symName: __ZN4Tree9buildNodeERKSt6vectorIiSaIiEEi, symObjAddr: 0x5920, symBinAddr: 0x100006660, symSize: 0x688 }
  - { offset: 0x6B733, size: 0x8, addend: 0x0, symName: __ZN4Tree5buildERKSt6vectorIiSaIiEE, symObjAddr: 0x5FA8, symBinAddr: 0x100006CE8, symSize: 0x164 }
  - { offset: 0x6BEC7, size: 0x8, addend: 0x0, symName: __ZN4TreeC1EiddRSt6vectorIS0_IdSaIdEESaIS2_EERS0_IS0_IiSaIiEESaIS7_EERS2_SB_R10ThreadPool, symObjAddr: 0xF5E4, symBinAddr: 0x10000E744, symSize: 0x36C }
  - { offset: 0x6D82F, size: 0x8, addend: 0x0, symName: __ZNKSt13__future_base13_State_baseV221_M_is_deferred_futureEv, symObjAddr: 0x4, symBinAddr: 0x100001244, symSize: 0x8 }
  - { offset: 0x6D85A, size: 0x8, addend: 0x0, symName: __ZNSt13__future_base13_State_baseV217_M_complete_asyncEv, symObjAddr: 0x0, symBinAddr: 0x100001240, symSize: 0x4 }
  - { offset: 0x6D883, size: 0x8, addend: 0x0, symName: __ZNSt13__future_base13_State_baseV29_M_do_setEPSt8functionIFSt10unique_ptrINS_12_Result_baseENS3_8_DeleterEEvEEPb, symObjAddr: 0x300, symBinAddr: 0x100001540, symSize: 0x64 }
  - { offset: 0x6D8DE, size: 0x8, addend: 0x0, symName: __ZNSt13__future_base13_State_baseV29_M_do_setEPSt8functionIFSt10unique_ptrINS_12_Result_baseENS3_8_DeleterEEvEEPb, symObjAddr: 0x300, symBinAddr: 0x100001540, symSize: 0x64 }
  - { offset: 0x6D8FE, size: 0x8, addend: 0x0, symName: __ZNSt13__future_base13_State_baseV29_M_do_setEPSt8functionIFSt10unique_ptrINS_12_Result_baseENS3_8_DeleterEEvEEPb, symObjAddr: 0x300, symBinAddr: 0x100001540, symSize: 0x64 }
  - { offset: 0x6DE05, size: 0x8, addend: 0x0, symName: __ZNSt8__format29__failed_to_parse_format_specEv, symObjAddr: 0x11CE0, symBinAddr: 0x100022940, symSize: 0x14 }
  - { offset: 0x6DE1D, size: 0x8, addend: 0x0, symName: __ZNSt8__format33__invalid_arg_id_in_format_stringEv, symObjAddr: 0x11CCC, symBinAddr: 0x10002292C, symSize: 0x14 }
  - { offset: 0x6DE35, size: 0x8, addend: 0x0, symName: __ZNSt8__format39__conflicting_indexing_in_format_stringEv, symObjAddr: 0x11CB8, symBinAddr: 0x100022918, symSize: 0x14 }
  - { offset: 0x6DE54, size: 0x8, addend: 0x0, symName: __ZNSt8__format39__unmatched_left_brace_in_format_stringEv, symObjAddr: 0x11CA4, symBinAddr: 0x100022904, symSize: 0x14 }
  - { offset: 0x6DE6C, size: 0x8, addend: 0x0, symName: __ZSt20__throw_format_errorPKc, symObjAddr: 0x11C44, symBinAddr: 0x1000228A4, symSize: 0x60 }
  - { offset: 0x6DEE1, size: 0x8, addend: 0x0, symName: __ZNSt12format_errorD0Ev, symObjAddr: 0x120, symBinAddr: 0x100001360, symSize: 0x40 }
  - { offset: 0x6DF03, size: 0x8, addend: 0x0, symName: __ZNSt12format_errorD0Ev, symObjAddr: 0x120, symBinAddr: 0x100001360, symSize: 0x40 }
  - { offset: 0x6DF2C, size: 0x8, addend: 0x0, symName: __ZNSt12format_errorD1Ev, symObjAddr: 0x100, symBinAddr: 0x100001340, symSize: 0x20 }
  - { offset: 0x6E455, size: 0x8, addend: 0x0, symName: __ZZNSt19_Sp_make_shared_tag5_S_tiEvE5__tag, symObjAddr: 0x16858, symBinAddr: 0x100027AF8, symSize: 0x0 }
  - { offset: 0x6EAE4, size: 0x8, addend: 0x0, symName: __ZNSt9__unicode9__v16_0_013__field_widthEDi.part.0, symObjAddr: 0x364, symBinAddr: 0x1000015A4, symSize: 0x7C }
  - { offset: 0x6EB10, size: 0x8, addend: 0x0, symName: __ZNSt9__unicode9__v16_0_013__field_widthEDi.part.0, symObjAddr: 0x364, symBinAddr: 0x1000015A4, symSize: 0x7C }
  - { offset: 0x6EB38, size: 0x8, addend: 0x0, symName: __ZNSt9__unicode9__v16_0_013__field_widthEDi.part.0, symObjAddr: 0x364, symBinAddr: 0x1000015A4, symSize: 0x7C }
  - { offset: 0x6EBFD, size: 0x8, addend: 0x0, symName: __ZNSt17_Function_handlerIFSt10unique_ptrINSt13__future_base12_Result_baseENS2_8_DeleterEEvENS1_12_Task_setterIS0_INS1_7_ResultI16bestFeatureSplitEES3_EZNS1_11_Task_stateISt5_BindIFM4TreeFS8_RKSt6vectorIiSaIiEEiEPSD_SG_mEESF_FS8_vEE6_M_runEvEUlvE_S8_EEE10_M_managerERSt9_Any_dataRKST_St18_Manager_operation, symObjAddr: 0x3E0, symBinAddr: 0x100001620, symSize: 0x40 }
  - { offset: 0x6ED8E, size: 0x8, addend: 0x0, symName: __ZNSt17_Function_handlerIFSt10unique_ptrINSt13__future_base12_Result_baseENS2_8_DeleterEEvENS1_12_Task_setterIS0_INS1_7_ResultI16bestFeatureSplitEES3_EZNS1_11_Task_stateISt5_BindIFM4TreeFS8_RKSt6vectorIiSaIiEEiEPSD_SG_mEESF_FS8_vEE14_M_run_delayedESt8weak_ptrINS1_13_State_baseV2EEEUlvE_S8_EEE10_M_managerERSt9_Any_dataRKSW_St18_Manager_operation, symObjAddr: 0x420, symBinAddr: 0x100001660, symSize: 0x40 }
  - { offset: 0x6EF1B, size: 0x8, addend: 0x0, symName: __ZSt24transform_inclusive_scanIRKN6__pstl9execution2v115parallel_policyEN9__gnu_cxx17__normal_iteratorIPdSt6vectorIdSaIdEEEESC_NS0_10__internal7__no_opESt4plusIdEENSt9enable_ifIXsrNS2_19is_execution_policyINSt9remove_cvINSt16remove_referenceIT_E4typeEE4typeEEE5valueET1_E4typeEOSL_T0_SV_SR_T3_T2_.isra.0, symObjAddr: 0x4B0, symBinAddr: 0x1000016F0, symSize: 0xD0 }
  - { offset: 0x6F349, size: 0x8, addend: 0x0, symName: __ZNSt13__future_base7_ResultI16bestFeatureSplitE10_M_destroyEv, symObjAddr: 0x660, symBinAddr: 0x1000018A0, symSize: 0x50 }
  - { offset: 0x6F3AE, size: 0x8, addend: 0x0, symName: __ZNKSt14default_deleteI8TreeNodeEclEPS0_.isra.0, symObjAddr: 0x1560, symBinAddr: 0x1000027A0, symSize: 0xA4 }
  - { offset: 0x6F623, size: 0x8, addend: 0x0, symName: __ZNSt7__cxx1112basic_stringIcSt11char_traitsIcESaIcEE14_M_replace_auxEmmmc.isra.0, symObjAddr: 0x1720, symBinAddr: 0x100002860, symSize: 0x248 }
  - { offset: 0x6FD59, size: 0x8, addend: 0x0, symName: __ZNKSt8__format5_SpecIcE12_M_get_widthISt20basic_format_contextINS_10_Sink_iterIcEEcEEEmRT_.part.0.isra.0, symObjAddr: 0x19E0, symBinAddr: 0x100002AC0, symSize: 0x100 }
  - { offset: 0x6FF71, size: 0x8, addend: 0x0, symName: __ZN4Tree11computeGainEdddd, symObjAddr: 0x1C10, symBinAddr: 0x100002CF0, symSize: 0x50 }
  - { offset: 0x70047, size: 0x8, addend: 0x0, symName: __ZNSt8__detail18__to_chars_10_implIjEEvPcjT_, symObjAddr: 0x1CC0, symBinAddr: 0x100002DA0, symSize: 0xC8 }
  - { offset: 0x700CA, size: 0x8, addend: 0x0, symName: __ZNSt16_Sp_counted_baseILN9__gnu_cxx12_Lock_policyE2EE10_M_releaseEv, symObjAddr: 0x1DE0, symBinAddr: 0x100002EC0, symSize: 0x64 }
  - { offset: 0x701EA, size: 0x8, addend: 0x0, symName: __ZNSt13__future_base11_Task_stateISt5_BindIFM4TreeF16bestFeatureSplitRKSt6vectorIiSaIiEEiEPS2_S6_mEES5_FS3_vEE6_M_runEv, symObjAddr: 0x1F8C, symBinAddr: 0x10000306C, symSize: 0xF4 }
  - { offset: 0x70216, size: 0x8, addend: 0x0, symName: __ZNSt13__future_base11_Task_stateISt5_BindIFM4TreeF16bestFeatureSplitRKSt6vectorIiSaIiEEiEPS2_S6_mEES5_FS3_vEE6_M_runEv, symObjAddr: 0x1F8C, symBinAddr: 0x10000306C, symSize: 0xF4 }
  - { offset: 0x704F7, size: 0x8, addend: 0x0, symName: __ZNSt8__detail13__to_chars_16IjEESt15to_chars_resultPcS2_T_, symObjAddr: 0x21C0, symBinAddr: 0x1000032A0, symSize: 0xC8 }
  - { offset: 0x7057F, size: 0x8, addend: 0x0, symName: __ZNSt16_Sp_counted_baseILN9__gnu_cxx12_Lock_policyE2EE15_M_weak_releaseEv, symObjAddr: 0x2F84, symBinAddr: 0x100004064, symSize: 0x28 }
  - { offset: 0x705A1, size: 0x8, addend: 0x0, symName: __ZNSt16_Sp_counted_baseILN9__gnu_cxx12_Lock_policyE2EE15_M_weak_releaseEv, symObjAddr: 0x2F84, symBinAddr: 0x100004064, symSize: 0x28 }
  - { offset: 0x705CE, size: 0x8, addend: 0x0, symName: __ZNSt16_Sp_counted_baseILN9__gnu_cxx12_Lock_policyE2EE15_M_weak_releaseEv, symObjAddr: 0x2F84, symBinAddr: 0x100004064, symSize: 0x28 }
  - { offset: 0x70602, size: 0x8, addend: 0x0, symName: __ZNSt7__cxx1112basic_stringIcSt11char_traitsIcESaIcEE7reserveEm, symObjAddr: 0x3204, symBinAddr: 0x100004204, symSize: 0x13C }
  - { offset: 0x70982, size: 0x8, addend: 0x0, symName: __ZNSt8__format5_SpecIcE14_M_parse_widthEPKcS3_RSt26basic_format_parse_contextIcE, symObjAddr: 0x3340, symBinAddr: 0x100004340, symSize: 0x260 }
  - { offset: 0x70D5B, size: 0x8, addend: 0x0, symName: __ZNSt7__cxx1112basic_stringIcSt11char_traitsIcESaIcEE9_M_mutateEmmPKcm, symObjAddr: 0x35A0, symBinAddr: 0x1000045A0, symSize: 0x1AC }
  - { offset: 0x712AB, size: 0x8, addend: 0x0, symName: __ZNSt8__format9_Seq_sinkINSt7__cxx1112basic_stringIcSt11char_traitsIcESaIcEEEE11_M_overflowEv, symObjAddr: 0x3BC0, symBinAddr: 0x100004BC0, symSize: 0x10C }
  - { offset: 0x712D7, size: 0x8, addend: 0x0, symName: __ZNSt8__format9_Seq_sinkINSt7__cxx1112basic_stringIcSt11char_traitsIcESaIcEEEE11_M_overflowEv, symObjAddr: 0x3BC0, symBinAddr: 0x100004BC0, symSize: 0x10C }
  - { offset: 0x712FB, size: 0x8, addend: 0x0, symName: __ZNSt8__format9_Seq_sinkINSt7__cxx1112basic_stringIcSt11char_traitsIcESaIcEEEE11_M_overflowEv, symObjAddr: 0x3BC0, symBinAddr: 0x100004BC0, symSize: 0x10C }
  - { offset: 0x7131F, size: 0x8, addend: 0x0, symName: __ZNSt8__format9_Seq_sinkINSt7__cxx1112basic_stringIcSt11char_traitsIcESaIcEEEE11_M_overflowEv, symObjAddr: 0x3BC0, symBinAddr: 0x100004BC0, symSize: 0x10C }
  - { offset: 0x71642, size: 0x8, addend: 0x0, symName: __ZNSt8__format5_SpecIcE23_M_parse_fill_and_alignEPKcS3_St17basic_string_viewIcSt11char_traitsIcEE, symObjAddr: 0x4360, symBinAddr: 0x1000050A0, symSize: 0x460 }
  - { offset: 0x716B0, size: 0x8, addend: 0x0, symName: __ZNSt8__format5_SpecIcE23_M_parse_fill_and_alignEPKcS3_St17basic_string_viewIcSt11char_traitsIcEE, symObjAddr: 0x4360, symBinAddr: 0x1000050A0, symSize: 0x460 }
  - { offset: 0x71976, size: 0x8, addend: 0x0, symName: __ZNSt8__format18__write_escape_seqINS_10_Sink_iterIcEEcEET_S3_jSt17basic_string_viewIT0_St11char_traitsIS5_EE.constprop.0, symObjAddr: 0x6AC0, symBinAddr: 0x100007720, symSize: 0x170 }
  - { offset: 0x71D40, size: 0x8, addend: 0x0, symName: __ZNSt8__format22__write_padded_as_specIcNS_10_Sink_iterIcEEEET0_St17basic_string_viewINSt13type_identityIT_E4typeESt11char_traitsIS8_EEmRSt20basic_format_contextIS3_S6_ERKNS_5_SpecIS6_EENS_6_AlignE, symObjAddr: 0x7180, symBinAddr: 0x1000078A0, symSize: 0xC4 }
  - { offset: 0x71E4B, size: 0x8, addend: 0x0, symName: __ZNSt8__format22__write_padded_as_specIcNS_10_Sink_iterIcEEEET0_St17basic_string_viewINSt13type_identityIT_E4typeESt11char_traitsIS8_EEmRSt20basic_format_contextIS3_S6_ERKNS_5_SpecIS6_EENS_6_AlignE.constprop.0, symObjAddr: 0x7244, symBinAddr: 0x100007964, symSize: 0xA4 }
  - { offset: 0x71F57, size: 0x8, addend: 0x0, symName: __ZNKSt8__format15__formatter_intIcE6formatIhNS_10_Sink_iterIcEEEENSt20basic_format_contextIT0_cE8iteratorET_RS7_, symObjAddr: 0x8A40, symBinAddr: 0x100008320, symSize: 0x408 }
  - { offset: 0x72411, size: 0x8, addend: 0x0, symName: __ZNKSt8__format15__formatter_intIcE6formatIoNS_10_Sink_iterIcEEEENSt20basic_format_contextIT0_cE8iteratorET_RS7_, symObjAddr: 0x95E0, symBinAddr: 0x100008740, symSize: 0x680 }
  - { offset: 0x72C9B, size: 0x8, addend: 0x0, symName: __ZNKSt8__format14__formatter_fpIcE11_M_localizeB5cxx11ESt17basic_string_viewIcSt11char_traitsIcEEcRKSt6locale.isra.0, symObjAddr: 0x9C60, symBinAddr: 0x100008DC0, symSize: 0x284 }
  - { offset: 0x736BC, size: 0x8, addend: 0x0, symName: __ZNSt16basic_format_argISt20basic_format_contextINSt8__format10_Sink_iterIcEEcEE8_M_visitIZNS1_19_Formatting_scannerIS3_cE13_M_format_argEmEUlRT_E_EEDcOS9_NS1_6_Arg_tE, symObjAddr: 0xD4E0, symBinAddr: 0x10000C640, symSize: 0x1960 }
  - { offset: 0x76DEF, size: 0x8, addend: 0x0, symName: __ZNSt8__format15__do_vformat_toINS_10_Sink_iterIcEEcSt20basic_format_contextIS2_cEEET_S5_St17basic_string_viewIT0_St11char_traitsIS7_EERKSt17basic_format_argsIT1_EPKSt6locale.isra.0, symObjAddr: 0xEE40, symBinAddr: 0x10000DFA0, symSize: 0x7A4 }
  - { offset: 0x7837E, size: 0x8, addend: 0x0, symName: __ZNSt8__format19_Formatting_scannerINS_10_Sink_iterIcEEcE13_M_format_argEm, symObjAddr: 0xF960, symBinAddr: 0x10000EAC0, symSize: 0x18BC }
  - { offset: 0xB603E, size: 0x8, addend: 0x0, symName: __ZStL8__ioinit, symObjAddr: 0x2DD5E8, symBinAddr: 0x100034CD0, symSize: 0x0 }
  - { offset: 0xB858E, size: 0x8, addend: 0x0, symName: __ZNSt8__format14_Fixedbuf_sinkIcE11_M_overflowEv, symObjAddr: 0xA0, symBinAddr: 0x1000103A0, symSize: 0xC }
  - { offset: 0xB85B2, size: 0x8, addend: 0x0, symName: __ZNSt8__format14_Fixedbuf_sinkIcE11_M_overflowEv, symObjAddr: 0xA0, symBinAddr: 0x1000103A0, symSize: 0xC }
  - { offset: 0xB8CD0, size: 0x8, addend: 0x0, symName: __ZSt14__add_groupingIcEPT_S1_S0_PKcmPKS0_S5_, symObjAddr: 0x88E0, symBinAddr: 0x100015220, symSize: 0x590 }
  - { offset: 0xB91D8, size: 0x8, addend: 0x0, symName: __ZNSt8__format15__write_escapedIcNS_10_Sink_iterIcEEEET0_S3_St17basic_string_viewIT_St11char_traitsIS5_EENS_10_Term_charE, symObjAddr: 0x8800, symBinAddr: 0x100015140, symSize: 0xE0 }
  - { offset: 0xBCFC9, size: 0x8, addend: 0x0, symName: __ZNSt8__format9_Seq_sinkINSt7__cxx1112basic_stringIcSt11char_traitsIcESaIcEEEE7_M_bumpEm, symObjAddr: 0x42B0, symBinAddr: 0x100012C30, symSize: 0x11C }
  - { offset: 0xBDC42, size: 0x8, addend: 0x0, symName: __ZNSt16basic_format_argISt20basic_format_contextINSt8__format10_Sink_iterIcEEcEE6handle9_S_formatIKNSt6chrono8durationIySt5ratioILl1ELl1EEEEEEvRSt26basic_format_parse_contextIcERS4_PKv, symObjAddr: 0x114C0, symBinAddr: 0x100018400, symSize: 0x80 }
  - { offset: 0xC0164, size: 0x8, addend: 0x0, symName: __ZNKSt8__format18__formatter_chronoIcE9_M_formatINSt6chrono8durationIxSt5ratioILl1ELl1EEEESt20basic_format_contextINS_10_Sink_iterIcEEcEEENT0_8iteratorERKT_RSC_b, symObjAddr: 0x11844, symBinAddr: 0x100018784, symSize: 0x11C8 }
  - { offset: 0xC02CB, size: 0x8, addend: 0x0, symName: __ZZNKSt8__format18__formatter_chronoIcE9_M_formatINSt6chrono8durationIxSt5ratioILl1ELl1EEEESt20basic_format_contextINS_10_Sink_iterIcEEcEEENT0_8iteratorERKT_RSC_bENKUlvE_clEv, symObjAddr: 0x7A30, symBinAddr: 0x1000150B0, symSize: 0x90 }
  - { offset: 0xC46C5, size: 0x8, addend: 0x0, symName: __ZNKSt8__format18__formatter_chronoIcE9_M_formatINSt6chrono8durationIySt5ratioILl1ELl1EEEESt20basic_format_contextINS_10_Sink_iterIcEEcEEENT0_8iteratorERKT_RSC_b, symObjAddr: 0x1030C, symBinAddr: 0x10001724C, symSize: 0x11B4 }
  - { offset: 0xC482C, size: 0x8, addend: 0x0, symName: __ZZNKSt8__format18__formatter_chronoIcE9_M_formatINSt6chrono8durationIySt5ratioILl1ELl1EEEESt20basic_format_contextINS_10_Sink_iterIcEEcEEENT0_8iteratorERKT_RSC_bENKUlvE_clEv, symObjAddr: 0x79A8, symBinAddr: 0x100015028, symSize: 0x88 }
  - { offset: 0xC8CB5, size: 0x8, addend: 0x0, symName: __ZNSt16basic_format_argISt20basic_format_contextINSt8__format10_Sink_iterIcEEcEE6handle9_S_formatIKNSt6chrono8durationIySt5ratioILl1ELl1000EEEEEEvRSt26basic_format_parse_contextIcERS4_PKv, symObjAddr: 0x15760, symBinAddr: 0x10001C6A0, symSize: 0x80 }
  - { offset: 0xC8EB4, size: 0x8, addend: 0x0, symName: __ZNSt16basic_format_argISt20basic_format_contextINSt8__format10_Sink_iterIcEEcEE6handle9_S_formatIKNSt6chrono8durationIxSt5ratioILl1ELl1EEEEEEvRSt26basic_format_parse_contextIcERS4_PKv, symObjAddr: 0x12A0C, symBinAddr: 0x10001994C, symSize: 0xB4 }
  - { offset: 0xCBE20, size: 0x8, addend: 0x0, symName: __ZNKSt8__format18__formatter_chronoIcE13_M_locale_fmtINS_10_Sink_iterIcEEEET_S5_RKSt6localeRK2tmcc, symObjAddr: 0x7040, symBinAddr: 0x100014BA0, symSize: 0x270 }
  - { offset: 0xCC602, size: 0x8, addend: 0x0, symName: __ZNKSt8__format18__formatter_chronoIcE8_M_writeINS_10_Sink_iterIcEEEET_S5_RKSt6localeSt17basic_string_viewIcSt11char_traitsIcEE, symObjAddr: 0x6F60, symBinAddr: 0x100014AC0, symSize: 0xE0 }
  - { offset: 0xCCB94, size: 0x8, addend: 0x0, symName: __ZNKSt8__format18__formatter_chronoIcE9_M_localeISt20basic_format_contextINS_10_Sink_iterIcEEcEEESt6localeRT_, symObjAddr: 0x6DEC, symBinAddr: 0x100014A2C, symSize: 0x80 }
  - { offset: 0xCECD4, size: 0x8, addend: 0x0, symName: __ZNKSt8__format18__formatter_chronoIcE9_M_formatINSt6chrono8durationIxSt5ratioILl1ELl1000EEEESt20basic_format_contextINS_10_Sink_iterIcEEcEEENT0_8iteratorERKT_RSC_b, symObjAddr: 0x12AC0, symBinAddr: 0x100019A00, symSize: 0x1660 }
  - { offset: 0xCEE3B, size: 0x8, addend: 0x0, symName: __ZZNKSt8__format18__formatter_chronoIcE9_M_formatINSt6chrono8durationIxSt5ratioILl1ELl1000EEEESt20basic_format_contextINS_10_Sink_iterIcEEcEEENT0_8iteratorERKT_RSC_bENKUlvE_clEv, symObjAddr: 0x6D00, symBinAddr: 0x100014940, symSize: 0x88 }
  - { offset: 0xD4607, size: 0x8, addend: 0x0, symName: __ZNKSt8__format18__formatter_chronoIcE9_M_formatINSt6chrono8durationIySt5ratioILl1ELl1000EEEESt20basic_format_contextINS_10_Sink_iterIcEEcEEENT0_8iteratorERKT_RSC_b, symObjAddr: 0x14120, symBinAddr: 0x10001B060, symSize: 0x1640 }
  - { offset: 0xD476E, size: 0x8, addend: 0x0, symName: __ZZNKSt8__format18__formatter_chronoIcE9_M_formatINSt6chrono8durationIySt5ratioILl1ELl1000EEEESt20basic_format_contextINS_10_Sink_iterIcEEcEEENT0_8iteratorERKT_RSC_bENKUlvE_clEv, symObjAddr: 0x668C, symBinAddr: 0x1000142CC, symSize: 0x94 }
  - { offset: 0xD9E00, size: 0x8, addend: 0x0, symName: __ZNSt8__format15__formatter_intIcE11_M_do_parseERSt26basic_format_parse_contextIcENS_10_Pres_typeE, symObjAddr: 0x6720, symBinAddr: 0x100014360, symSize: 0x5E0 }
  - { offset: 0xDA84C, size: 0x8, addend: 0x0, symName: __ZNSt16basic_format_argISt20basic_format_contextINSt8__format10_Sink_iterIcEEcEE6handle9_S_formatIKNSt6chrono8durationIxSt5ratioILl1ELl1000EEEEEEvRSt26basic_format_parse_contextIcERS4_PKv, symObjAddr: 0x157E0, symBinAddr: 0x10001C720, symSize: 0xC0 }
  - { offset: 0xDB589, size: 0x8, addend: 0x0, symName: __ZNSt23mersenne_twister_engineIjLm32ELm624ELm397ELm31ELj2567483615ELm11ELj4294967295ELm7ELj2636928640ELm15ELj4022730752ELm18ELj1812433253EE11_M_gen_randEv, symObjAddr: 0x4484, symBinAddr: 0x100012E04, symSize: 0x15C }
  - { offset: 0xDCA1E, size: 0x8, addend: 0x0, symName: __ZSt7printlnIJRNSt6chrono8durationIxSt5ratioILl1ELl1000EEEEEEvP7__sFILESt19basic_format_stringIcJDpNSt13type_identityIT_E4typeEEEDpOSA_, symObjAddr: 0x158A0, symBinAddr: 0x10001C7E0, symSize: 0x340 }
  - { offset: 0xDDFD7, size: 0x8, addend: 0x0, symName: __ZNSt6vectorIdSaIdEE17_M_realloc_appendIJRKdEEEvDpOT_, symObjAddr: 0x43CC, symBinAddr: 0x100012D4C, symSize: 0xB8 }
  - { offset: 0xDEF78, size: 0x8, addend: 0x0, symName: __ZNSt8__format15__do_vformat_toINS_10_Sink_iterIcEEcSt20basic_format_contextIS2_cEEET_S5_St17basic_string_viewIT0_St11char_traitsIS7_EERKSt17basic_format_argsIT1_EPKSt6locale, symObjAddr: 0xF5A4, symBinAddr: 0x1000164E4, symSize: 0x720 }
  - { offset: 0xE145C, size: 0x8, addend: 0x0, symName: __ZNSt6vectorIdSaIdEE7reserveEm, symObjAddr: 0x266C, symBinAddr: 0x1000126EC, symSize: 0xB8 }
  - { offset: 0xE17DE, size: 0x8, addend: 0x0, symName: __ZSt7shuffleIN9__gnu_cxx17__normal_iteratorIPSt6vectorIdSaIdEES2_IS4_SaIS4_EEEERSt23mersenne_twister_engineIjLm32ELm624ELm397ELm31ELj2567483615ELm11ELj4294967295ELm7ELj2636928640ELm15ELj4022730752ELm18ELj1812433253EEEvT_SC_OT0_, symObjAddr: 0x47E0, symBinAddr: 0x100013160, symSize: 0x1CC }
  - { offset: 0xE21A6, size: 0x8, addend: 0x0, symName: __ZNSt7__cxx1115basic_stringbufIcSt11char_traitsIcESaIcEED1Ev, symObjAddr: 0x2608, symBinAddr: 0x100012688, symSize: 0x64 }
  - { offset: 0xE2447, size: 0x8, addend: 0x0, symName: __ZNSt6vectorIS_IdSaIdEESaIS1_EED1Ev, symObjAddr: 0x2580, symBinAddr: 0x100012600, symSize: 0x88 }
  - { offset: 0xE2742, size: 0x8, addend: 0x0, symName: __ZNSt6vectorISt10unique_ptrI4TreeSt14default_deleteIS1_EESaIS4_EED1Ev, symObjAddr: 0x13C8, symBinAddr: 0x100011448, symSize: 0x11B8 }
  - { offset: 0xE82E0, size: 0x8, addend: 0x0, symName: __ZN9__gnu_cxx6__stoaIlicJiEEET0_PFT_PKT1_PPS3_DpT2_EPKcS5_PmS9_, symObjAddr: 0x10EC, symBinAddr: 0x10001122C, symSize: 0x114 }
  - { offset: 0xE8542, size: 0x8, addend: 0x0, symName: _main, symObjAddr: 0x1CD40, symBinAddr: 0x100022960, symSize: 0xF3C }
  - { offset: 0xEC596, size: 0x8, addend: 0x0, symName: __ZNSt8__format18__formatter_chronoIcE8_M_parseISt26basic_format_parse_contextIcEEENT_8iteratorERS5_NS_12_ChronoPartsE, symObjAddr: 0x4FE0, symBinAddr: 0x100013340, symSize: 0xF84 }
  - { offset: 0xED7D1, size: 0x8, addend: 0x0, symName: __ZNSt13random_deviceC1Ev, symObjAddr: 0x1060, symBinAddr: 0x1000111A0, symSize: 0x8C }
  - { offset: 0xED7F3, size: 0x8, addend: 0x0, symName: __ZNSt13random_deviceC1Ev, symObjAddr: 0x1060, symBinAddr: 0x1000111A0, symSize: 0x8C }
  - { offset: 0xED837, size: 0x8, addend: 0x0, symName: __ZNSt13random_deviceC1Ev, symObjAddr: 0x1060, symBinAddr: 0x1000111A0, symSize: 0x8C }
  - { offset: 0xED881, size: 0x8, addend: 0x0, symName: __ZNSt13random_deviceC1Ev, symObjAddr: 0x1060, symBinAddr: 0x1000111A0, symSize: 0x8C }
  - { offset: 0xED8B4, size: 0x8, addend: 0x0, symName: __ZNSt13random_deviceC1Ev, symObjAddr: 0x1060, symBinAddr: 0x1000111A0, symSize: 0x8C }
  - { offset: 0xED8E8, size: 0x8, addend: 0x0, symName: __ZNSt13random_deviceC1Ev, symObjAddr: 0x1060, symBinAddr: 0x1000111A0, symSize: 0x8C }
  - { offset: 0xEDD53, size: 0x8, addend: 0x0, symName: __ZN10ThreadPoolD1Ev, symObjAddr: 0x924, symBinAddr: 0x100010A64, symSize: 0x73C }
  - { offset: 0xEDD96, size: 0x8, addend: 0x0, symName: __ZN10ThreadPoolD1Ev, symObjAddr: 0x924, symBinAddr: 0x100010A64, symSize: 0x73C }
  - { offset: 0xEDDBB, size: 0x8, addend: 0x0, symName: __ZN10ThreadPoolD1Ev, symObjAddr: 0x924, symBinAddr: 0x100010A64, symSize: 0x73C }
  - { offset: 0xEF7CC, size: 0x8, addend: 0x0, symName: __ZZNSt8__detail18__waiter_pool_base6_S_forEPKvE3__w, symObjAddr: 0x1DE40, symBinAddr: 0x1000340C0, symSize: 0x0 }
  - { offset: 0xEF7F7, size: 0x8, addend: 0x0, symName: ___tcf_ZZNSt8__detail18__waiter_pool_base6_S_forEPKvE3__w, symObjAddr: 0x100, symBinAddr: 0x1000103C0, symSize: 0x40 }
  - { offset: 0xEFC6D, size: 0x8, addend: 0x0, symName: __ZSt7vformatB5cxx11RKSt6localeSt17basic_string_viewIcSt11char_traitsIcEESt17basic_format_argsISt20basic_format_contextINSt8__format10_Sink_iterIcEEcEE, symObjAddr: 0xFCC4, symBinAddr: 0x100016C04, symSize: 0x1A0 }
  - { offset: 0xEFCCD, size: 0x8, addend: 0x0, symName: __ZSt7vformatB5cxx11RKSt6localeSt17basic_string_viewIcSt11char_traitsIcEESt17basic_format_argsISt20basic_format_contextINSt8__format10_Sink_iterIcEEcEE, symObjAddr: 0xFCC4, symBinAddr: 0x100016C04, symSize: 0x1A0 }
  - { offset: 0xF0DBB, size: 0x8, addend: 0x0, symName: __ZNKSt5ctypeIcE8do_widenEc, symObjAddr: 0x0, symBinAddr: 0x100010380, symSize: 0x8 }
  - { offset: 0xF0DE6, size: 0x8, addend: 0x0, symName: __ZNSt9__unicode9__v16_0_013__field_widthEDi.part.0, symObjAddr: 0x140, symBinAddr: 0x100010400, symSize: 0x68 }
  - { offset: 0xF0E12, size: 0x8, addend: 0x0, symName: __ZNSt9__unicode9__v16_0_013__field_widthEDi.part.0, symObjAddr: 0x140, symBinAddr: 0x100010400, symSize: 0x68 }
  - { offset: 0xF0E3A, size: 0x8, addend: 0x0, symName: __ZNSt9__unicode9__v16_0_013__field_widthEDi.part.0, symObjAddr: 0x140, symBinAddr: 0x100010400, symSize: 0x68 }
  - { offset: 0xF0EFB, size: 0x8, addend: 0x0, symName: __ZNSt6vectorIS_IdSaIdEESaIS1_EEC1IN9__gnu_cxx17__normal_iteratorIPS1_S3_EEvEET_S9_RKS2_.isra.0, symObjAddr: 0x1A8, symBinAddr: 0x100010468, symSize: 0x140 }
  - { offset: 0xF170B, size: 0x8, addend: 0x0, symName: __ZNKSt14default_deleteI8TreeNodeEclEPS0_.isra.0, symObjAddr: 0x2E8, symBinAddr: 0x1000105A8, symSize: 0xA4 }
  - { offset: 0xF1980, size: 0x8, addend: 0x0, symName: __ZNSt7__cxx1112basic_stringIcSt11char_traitsIcESaIcEEC1IS3_EEPKcRKS3_.constprop.0, symObjAddr: 0x38C, symBinAddr: 0x10001064C, symSize: 0x1C }
  - { offset: 0xF19C9, size: 0x8, addend: 0x0, symName: __ZNSt7__cxx1112basic_stringIcSt11char_traitsIcESaIcEEC1IS3_EEPKcRKS3_.constprop.0, symObjAddr: 0x38C, symBinAddr: 0x10001064C, symSize: 0x1C }
  - { offset: 0xF1A03, size: 0x8, addend: 0x0, symName: __ZNSt7__cxx1112basic_stringIcSt11char_traitsIcESaIcEEC1IS3_EEPKcRKS3_.constprop.0, symObjAddr: 0x38C, symBinAddr: 0x10001064C, symSize: 0x1C }
  - { offset: 0xF1A2A, size: 0x8, addend: 0x0, symName: __ZNSt7__cxx1112basic_stringIcSt11char_traitsIcESaIcEEC1IS3_EEPKcRKS3_.constprop.0, symObjAddr: 0x38C, symBinAddr: 0x10001064C, symSize: 0x1C }
  - { offset: 0xF1A52, size: 0x8, addend: 0x0, symName: __ZNSt7__cxx1112basic_stringIcSt11char_traitsIcESaIcEEC1IS3_EEPKcRKS3_.constprop.0, symObjAddr: 0x38C, symBinAddr: 0x10001064C, symSize: 0x1C }
  - { offset: 0xF1B2F, size: 0x8, addend: 0x0, symName: __ZNSt7__cxx1112basic_stringIcSt11char_traitsIcESaIcEEC1IS3_EEPKcRKS3_.isra.0, symObjAddr: 0x3A8, symBinAddr: 0x100010668, symSize: 0xB8 }
  - { offset: 0xF1EC0, size: 0x8, addend: 0x0, symName: __ZNSt7__cxx1112basic_stringIcSt11char_traitsIcESaIcEE6insertEmmc.constprop.0.isra.0, symObjAddr: 0x460, symBinAddr: 0x100010720, symSize: 0x250 }
  - { offset: 0xF253A, size: 0x8, addend: 0x0, symName: __ZNKSt8__format5_SpecIcE12_M_get_widthISt20basic_format_contextINS_10_Sink_iterIcEEcEEEmRT_.part.0.isra.0, symObjAddr: 0x830, symBinAddr: 0x100010970, symSize: 0xF4 }
  - { offset: 0xF274E, size: 0x8, addend: 0x0, symName: __ZN9__gnu_cxx6__stoaIddcJEEET0_PFT_PKT1_PPS3_DpT2_EPKcS5_PmS9_.constprop.0, symObjAddr: 0x1248, symBinAddr: 0x100011388, symSize: 0xB8 }
  - { offset: 0xF27F5, size: 0x8, addend: 0x0, symName: __ZNSt7__cxx1112basic_stringIcSt11char_traitsIcESaIcEE10_M_replaceEmmPKcm.isra.0, symObjAddr: 0x3B2C, symBinAddr: 0x1000127AC, symSize: 0x174 }
  - { offset: 0xF2B10, size: 0x8, addend: 0x0, symName: __ZNSt7__cxx1112basic_stringIcSt11char_traitsIcESaIcEE14_M_replace_auxEmmmc.isra.0, symObjAddr: 0x3CA0, symBinAddr: 0x100012920, symSize: 0x140 }
  - { offset: 0xF2E3E, size: 0x8, addend: 0x0, symName: __ZNSt7__cxx1112basic_stringIcSt11char_traitsIcESaIcEE6insertEmPKc.constprop.0.isra.0, symObjAddr: 0x40EC, symBinAddr: 0x100012A6C, symSize: 0x1C4 }
  - { offset: 0xF3253, size: 0x8, addend: 0x0, symName: __ZNSt24uniform_int_distributionImEclISt23mersenne_twister_engineIjLm32ELm624ELm397ELm31ELj2567483615ELm11ELj4294967295ELm7ELj2636928640ELm15ELj4022730752ELm18ELj1812433253EEEEmRT_RKNS0_10param_typeE.isra.0, symObjAddr: 0x45E0, symBinAddr: 0x100012F60, symSize: 0x200 }
  - { offset: 0xF344E, size: 0x8, addend: 0x0, symName: __ZNSt20basic_format_contextINSt8__format10_Sink_iterIcEEcE6localeEv, symObjAddr: 0x6D88, symBinAddr: 0x1000149C8, symSize: 0x64 }
  - { offset: 0xF34C1, size: 0x8, addend: 0x0, symName: __ZNSt8__format18__write_escape_seqINS_10_Sink_iterIcEEcEET_S3_jSt17basic_string_viewIT0_St11char_traitsIS5_EE.constprop.0, symObjAddr: 0x72B0, symBinAddr: 0x100014E10, symSize: 0x174 }
  - { offset: 0xF3887, size: 0x8, addend: 0x0, symName: __ZNSt8__format22__write_padded_as_specIcNS_10_Sink_iterIcEEEET0_St17basic_string_viewINSt13type_identityIT_E4typeESt11char_traitsIS8_EEmRSt20basic_format_contextIS3_S6_ERKNS_5_SpecIS6_EENS_6_AlignE.constprop.0, symObjAddr: 0x7904, symBinAddr: 0x100014F84, symSize: 0xA4 }
  - { offset: 0xF3993, size: 0x8, addend: 0x0, symName: __ZNKSt8__format15__formatter_intIcE6formatINS_10_Sink_iterIcEEEENSt20basic_format_contextIT_cE8iteratorEbRS7_, symObjAddr: 0x9568, symBinAddr: 0x1000157C8, symSize: 0x2F8 }
  - { offset: 0xF4654, size: 0x8, addend: 0x0, symName: __ZNKSt8__format15__formatter_intIcE6formatInNS_10_Sink_iterIcEEEENSt20basic_format_contextIT0_cE8iteratorET_RS7_, symObjAddr: 0x9860, symBinAddr: 0x100015AC0, symSize: 0x7A0 }
  - { offset: 0xF4EF6, size: 0x8, addend: 0x0, symName: __ZNKSt8__format14__formatter_fpIcE11_M_localizeB5cxx11ESt17basic_string_viewIcSt11char_traitsIcEEcRKSt6locale.isra.0, symObjAddr: 0xA680, symBinAddr: 0x100016260, symSize: 0x284 }
  - { offset: 0xF5917, size: 0x8, addend: 0x0, symName: __ZSt7vformatB5cxx11St17basic_string_viewIcSt11char_traitsIcEESt17basic_format_argsISt20basic_format_contextINSt8__format10_Sink_iterIcEEcEE, symObjAddr: 0xFE64, symBinAddr: 0x100016DA4, symSize: 0x1A8 }
  - { offset: 0xF594D, size: 0x8, addend: 0x0, symName: __ZSt7vformatB5cxx11St17basic_string_viewIcSt11char_traitsIcEESt17basic_format_argsISt20basic_format_contextINSt8__format10_Sink_iterIcEEcEE, symObjAddr: 0xFE64, symBinAddr: 0x100016DA4, symSize: 0x1A8 }
  - { offset: 0xF6179, size: 0x8, addend: 0x0, symName: __ZNKSt8__format18__formatter_chronoIcE6_M_R_TINSt6chrono8durationIySt5ratioILl1ELl1EEEESt20basic_format_contextINS_10_Sink_iterIcEEcEEENT0_8iteratorERKT_SD_RSC_b.isra.0, symObjAddr: 0x1000C, symBinAddr: 0x100016F4C, symSize: 0x300 }
  - { offset: 0xF61D5, size: 0x8, addend: 0x0, symName: __ZNKSt8__format18__formatter_chronoIcE6_M_R_TINSt6chrono8durationIySt5ratioILl1ELl1EEEESt20basic_format_contextINS_10_Sink_iterIcEEcEEENT0_8iteratorERKT_SD_RSC_b.isra.0, symObjAddr: 0x1000C, symBinAddr: 0x100016F4C, symSize: 0x300 }
  - { offset: 0xF61F1, size: 0x8, addend: 0x0, symName: __ZNKSt8__format18__formatter_chronoIcE6_M_R_TINSt6chrono8durationIySt5ratioILl1ELl1EEEESt20basic_format_contextINS_10_Sink_iterIcEEcEEENT0_8iteratorERKT_SD_RSC_b.isra.0, symObjAddr: 0x1000C, symBinAddr: 0x100016F4C, symSize: 0x300 }
  - { offset: 0xF6213, size: 0x8, addend: 0x0, symName: __ZNKSt8__format18__formatter_chronoIcE6_M_R_TINSt6chrono8durationIySt5ratioILl1ELl1EEEESt20basic_format_contextINS_10_Sink_iterIcEEcEEENT0_8iteratorERKT_SD_RSC_b.isra.0, symObjAddr: 0x1000C, symBinAddr: 0x100016F4C, symSize: 0x300 }
  - { offset: 0xF623B, size: 0x8, addend: 0x0, symName: __ZNKSt8__format18__formatter_chronoIcE6_M_R_TINSt6chrono8durationIySt5ratioILl1ELl1EEEESt20basic_format_contextINS_10_Sink_iterIcEEcEEENT0_8iteratorERKT_SD_RSC_b.isra.0, symObjAddr: 0x1000C, symBinAddr: 0x100016F4C, symSize: 0x300 }
  - { offset: 0xF6261, size: 0x8, addend: 0x0, symName: __ZNKSt8__format18__formatter_chronoIcE6_M_R_TINSt6chrono8durationIySt5ratioILl1ELl1EEEESt20basic_format_contextINS_10_Sink_iterIcEEcEEENT0_8iteratorERKT_SD_RSC_b.isra.0, symObjAddr: 0x1000C, symBinAddr: 0x100016F4C, symSize: 0x300 }
  - { offset: 0xF70F0, size: 0x8, addend: 0x0, symName: __ZNKSt8__format18__formatter_chronoIcE6_M_R_TINSt6chrono8durationIxSt5ratioILl1ELl1EEEESt20basic_format_contextINS_10_Sink_iterIcEEcEEENT0_8iteratorERKT_SD_RSC_b.isra.0, symObjAddr: 0x11540, symBinAddr: 0x100018480, symSize: 0x304 }
  - { offset: 0xF714C, size: 0x8, addend: 0x0, symName: __ZNKSt8__format18__formatter_chronoIcE6_M_R_TINSt6chrono8durationIxSt5ratioILl1ELl1EEEESt20basic_format_contextINS_10_Sink_iterIcEEcEEENT0_8iteratorERKT_SD_RSC_b.isra.0, symObjAddr: 0x11540, symBinAddr: 0x100018480, symSize: 0x304 }
  - { offset: 0xF7168, size: 0x8, addend: 0x0, symName: __ZNKSt8__format18__formatter_chronoIcE6_M_R_TINSt6chrono8durationIxSt5ratioILl1ELl1EEEESt20basic_format_contextINS_10_Sink_iterIcEEcEEENT0_8iteratorERKT_SD_RSC_b.isra.0, symObjAddr: 0x11540, symBinAddr: 0x100018480, symSize: 0x304 }
  - { offset: 0xF718A, size: 0x8, addend: 0x0, symName: __ZNKSt8__format18__formatter_chronoIcE6_M_R_TINSt6chrono8durationIxSt5ratioILl1ELl1EEEESt20basic_format_contextINS_10_Sink_iterIcEEcEEENT0_8iteratorERKT_SD_RSC_b.isra.0, symObjAddr: 0x11540, symBinAddr: 0x100018480, symSize: 0x304 }
  - { offset: 0xF71B2, size: 0x8, addend: 0x0, symName: __ZNKSt8__format18__formatter_chronoIcE6_M_R_TINSt6chrono8durationIxSt5ratioILl1ELl1EEEESt20basic_format_contextINS_10_Sink_iterIcEEcEEENT0_8iteratorERKT_SD_RSC_b.isra.0, symObjAddr: 0x11540, symBinAddr: 0x100018480, symSize: 0x304 }
  - { offset: 0xF71D8, size: 0x8, addend: 0x0, symName: __ZNKSt8__format18__formatter_chronoIcE6_M_R_TINSt6chrono8durationIxSt5ratioILl1ELl1EEEESt20basic_format_contextINS_10_Sink_iterIcEEcEEENT0_8iteratorERKT_SD_RSC_b.isra.0, symObjAddr: 0x11540, symBinAddr: 0x100018480, symSize: 0x304 }
  - { offset: 0x1254E3, size: 0x8, addend: 0x0, symName: __ZNSt8__detail31__from_chars_alnum_to_val_tableILb0EE5valueE, symObjAddr: 0x1091E, symBinAddr: 0x100027C76, symSize: 0x0 }
  - { offset: 0x125651, size: 0x8, addend: 0x0, symName: __ZStL8__ioinit, symObjAddr: 0x22AEB8, symBinAddr: 0x100034CD1, symSize: 0x0 }
  - { offset: 0x1288DF, size: 0x8, addend: 0x0, symName: __ZNSt8__format5_SinkIcE8_M_writeESt17basic_string_viewIcSt11char_traitsIcEE, symObjAddr: 0x4B28, symBinAddr: 0x10001E688, symSize: 0xF8 }
  - { offset: 0x129616, size: 0x8, addend: 0x0, symName: __ZNSt8__format14__write_paddedINS_10_Sink_iterIcEEcEET_S3_St17basic_string_viewIT0_St11char_traitsIS5_EENS_6_AlignEmDi, symObjAddr: 0x4D60, symBinAddr: 0x10001E8C0, symSize: 0x420 }
  - { offset: 0x12D522, size: 0x8, addend: 0x0, symName: __ZNSt6thread11_State_implINS_8_InvokerISt5tupleIJZN10ThreadPoolC4EmEUlvE_EEEEE6_M_runEv, symObjAddr: 0x30C, symBinAddr: 0x10001CD8C, symSize: 0x254 }
  - { offset: 0x12DE77, size: 0x8, addend: 0x0, symName: __ZNSt6thread11_State_implINS_8_InvokerISt5tupleIJZN10ThreadPoolC4EmEUlvE_EEEEED0Ev, symObjAddr: 0x120, symBinAddr: 0x10001CC00, symSize: 0x40 }
  - { offset: 0x12DE99, size: 0x8, addend: 0x0, symName: __ZNSt6thread11_State_implINS_8_InvokerISt5tupleIJZN10ThreadPoolC4EmEUlvE_EEEEED0Ev, symObjAddr: 0x120, symBinAddr: 0x10001CC00, symSize: 0x40 }
  - { offset: 0x12DEC2, size: 0x8, addend: 0x0, symName: __ZNSt6thread11_State_implINS_8_InvokerISt5tupleIJZN10ThreadPoolC4EmEUlvE_EEEEED1Ev, symObjAddr: 0x10C, symBinAddr: 0x10001CBEC, symSize: 0x14 }
  - { offset: 0x131075, size: 0x8, addend: 0x0, symName: __ZSt16__introsort_loopIN9__gnu_cxx17__normal_iteratorIPiSt6vectorIiSaIiEEEElNS0_5__ops15_Iter_comp_iterIZZN7XGBoost5trainERS3_IS3_IdSaIdEESaISB_EERKSB_ENKUliE0_clEiEUliiE_EEEvT_SK_T0_T1_, symObjAddr: 0x560, symBinAddr: 0x10001CFE0, symSize: 0x560 }
  - { offset: 0x1342F5, size: 0x8, addend: 0x0, symName: __ZSt7printlnIJEEvP7__sFILESt19basic_format_stringIcJDpNSt13type_identityIT_E4typeEEEDpOS4_, symObjAddr: 0xC7C0, symBinAddr: 0x100020020, symSize: 0x200 }
  - { offset: 0x136FA4, size: 0x8, addend: 0x0, symName: __ZNSt6vectorISt7jthreadSaIS0_EED1Ev, symObjAddr: 0x1F40, symBinAddr: 0x10001DC80, symSize: 0x580 }
  - { offset: 0x137C23, size: 0x8, addend: 0x0, symName: __ZNSt5dequeISt8functionIFvvEESaIS2_EED1Ev, symObjAddr: 0x1D88, symBinAddr: 0x10001DAC8, symSize: 0x1B8 }
  - { offset: 0x1389F0, size: 0x8, addend: 0x0, symName: __ZN7XGBoost4testERKSt6vectorIS0_IdSaIdEESaIS2_EERKS2_, symObjAddr: 0xE5CC, symBinAddr: 0x100021E2C, symSize: 0x6F4 }
  - { offset: 0x13BB6E, size: 0x8, addend: 0x0, symName: __ZNSt9__unicode13_Utf_iteratorIcDiPKcS2_NS_5_ReplEE12_M_read_utf8Ev, symObjAddr: 0xE60, symBinAddr: 0x10001D8E0, symSize: 0x1D0 }
  - { offset: 0x13BF76, size: 0x8, addend: 0x0, symName: __ZNK7XGBoost7predictERKSt6vectorIdSaIdEE, symObjAddr: 0xD60, symBinAddr: 0x10001D7E0, symSize: 0x100 }
  - { offset: 0x13C4DB, size: 0x8, addend: 0x0, symName: __ZN7XGBoost5trainERSt6vectorIS0_IdSaIdEESaIS2_EERKS2_, symObjAddr: 0xCFC0, symBinAddr: 0x100020820, symSize: 0x160C }
  - { offset: 0x140530, size: 0x8, addend: 0x0, symName: __ZN7XGBoost5trainERSt6vectorIS0_IdSaIdEESaIS2_EERKS2_, symObjAddr: 0xCFC0, symBinAddr: 0x100020820, symSize: 0x160C }
  - { offset: 0x145346, size: 0x8, addend: 0x0, symName: __ZN7XGBoostC1Eiiddd, symObjAddr: 0xC9C0, symBinAddr: 0x100020220, symSize: 0x400 }
  - { offset: 0x146BDE, size: 0x8, addend: 0x0, symName: __ZNSt11stop_sourceD1Ev, symObjAddr: 0xD20, symBinAddr: 0x10001D7A0, symSize: 0x40 }
  - { offset: 0x146C00, size: 0x8, addend: 0x0, symName: __ZNSt11stop_sourceD1Ev, symObjAddr: 0xD20, symBinAddr: 0x10001D7A0, symSize: 0x40 }
  - { offset: 0x146FFC, size: 0x8, addend: 0x0, symName: __ZNSt6thread24_M_thread_deps_never_runEv, symObjAddr: 0x0, symBinAddr: 0x10001CB60, symSize: 0x4 }
  - { offset: 0x1470AC, size: 0x8, addend: 0x0, symName: ___tcf_ZZNSt8__detail18__waiter_pool_base6_S_forEPKvE3__w, symObjAddr: 0x160, symBinAddr: 0x10001CC40, symSize: 0x40 }
  - { offset: 0x147ACA, size: 0x8, addend: 0x0, symName: __ZN9__gnu_cxx5__ops15_Iter_comp_iterIZZN7XGBoost5trainERSt6vectorIS3_IdSaIdEESaIS5_EERKS5_ENKUliE0_clEiEUliiE_EclINS_17__normal_iteratorIPiS3_IiSaIiEEEESJ_EEbT_T0_, symObjAddr: 0xA0, symBinAddr: 0x10001CB80, symSize: 0x60 }
  - { offset: 0x147B00, size: 0x8, addend: 0x0, symName: __ZN9__gnu_cxx5__ops15_Iter_comp_iterIZZN7XGBoost5trainERSt6vectorIS3_IdSaIdEESaIS5_EERKS5_ENKUliE0_clEiEUliiE_EclINS_17__normal_iteratorIPiS3_IiSaIiEEEESJ_EEbT_T0_, symObjAddr: 0xA0, symBinAddr: 0x10001CB80, symSize: 0x60 }
  - { offset: 0x147BF0, size: 0x8, addend: 0x0, symName: __ZNSt9__unicode9__v16_0_013__field_widthEDi.part.0, symObjAddr: 0x200, symBinAddr: 0x10001CC80, symSize: 0x68 }
  - { offset: 0x147C1C, size: 0x8, addend: 0x0, symName: __ZNSt9__unicode9__v16_0_013__field_widthEDi.part.0, symObjAddr: 0x200, symBinAddr: 0x10001CC80, symSize: 0x68 }
  - { offset: 0x147C44, size: 0x8, addend: 0x0, symName: __ZNSt9__unicode9__v16_0_013__field_widthEDi.part.0, symObjAddr: 0x200, symBinAddr: 0x10001CC80, symSize: 0x68 }
  - { offset: 0x147D05, size: 0x8, addend: 0x0, symName: __ZNKSt14default_deleteI8TreeNodeEclEPS0_.isra.0, symObjAddr: 0x268, symBinAddr: 0x10001CCE8, symSize: 0xA4 }
  - { offset: 0x147F7E, size: 0x8, addend: 0x0, symName: __ZNSt9__unicode9__v16_0_015__incb_propertyEDi, symObjAddr: 0xAC0, symBinAddr: 0x10001D540, symSize: 0x6C }
  - { offset: 0x147FA9, size: 0x8, addend: 0x0, symName: __ZNSt9__unicode9__v16_0_014__incb_linkersE, symObjAddr: 0x118E8, symBinAddr: 0x100028C40, symSize: 0x0 }
  - { offset: 0x1480B7, size: 0x8, addend: 0x0, symName: __ZNKSt8__format5_SpecIcE12_M_get_widthISt20basic_format_contextINS_10_Sink_iterIcEEcEEEmRT_.part.0.isra.0, symObjAddr: 0xB2C, symBinAddr: 0x10001D5AC, symSize: 0xF8 }
  - { offset: 0x1482CB, size: 0x8, addend: 0x0, symName: __ZNKSt8__format5_SpecIcE16_M_get_precisionISt20basic_format_contextINS_10_Sink_iterIcEEcEEEmRT_.part.0.isra.0, symObjAddr: 0xC24, symBinAddr: 0x10001D6A4, symSize: 0xFC }
  - { offset: 0x1484E3, size: 0x8, addend: 0x0, symName: __ZNSt8__format14__parse_arg_idIcEESt4pairItPKT_ES4_S4_, symObjAddr: 0x24C0, symBinAddr: 0x10001E200, symSize: 0x100 }
  - { offset: 0x14861F, size: 0x8, addend: 0x0, symName: __ZNSt7__cxx1112basic_stringIcSt11char_traitsIcESaIcEE6appendEPKcm.isra.0, symObjAddr: 0x3DCC, symBinAddr: 0x10001E30C, symSize: 0xD4 }
  - { offset: 0x1488AB, size: 0x8, addend: 0x0, symName: __ZNSt7__cxx1112basic_stringIcSt11char_traitsIcESaIcEE10_M_replaceEmmPKcm.isra.0, symObjAddr: 0x3EA0, symBinAddr: 0x10001E3E0, symSize: 0x168 }
  - { offset: 0x148BC6, size: 0x8, addend: 0x0, symName: __ZNSt7__cxx1112basic_stringIcSt11char_traitsIcESaIcEE14_M_replace_auxEmmmc.isra.0, symObjAddr: 0x4008, symBinAddr: 0x10001E548, symSize: 0x138 }
  - { offset: 0x148EF8, size: 0x8, addend: 0x0, symName: __ZNSt8__format19_Formatting_scannerINS_10_Sink_iterIcEEcE11_M_on_charsEPKc, symObjAddr: 0x4C20, symBinAddr: 0x10001E780, symSize: 0x40 }
  - { offset: 0x148F2E, size: 0x8, addend: 0x0, symName: __ZNSt8__format19_Formatting_scannerINS_10_Sink_iterIcEEcE11_M_on_charsEPKc, symObjAddr: 0x4C20, symBinAddr: 0x10001E780, symSize: 0x40 }
  - { offset: 0x148F52, size: 0x8, addend: 0x0, symName: __ZNSt8__format19_Formatting_scannerINS_10_Sink_iterIcEEcE11_M_on_charsEPKc, symObjAddr: 0x4C20, symBinAddr: 0x10001E780, symSize: 0x40 }
  - { offset: 0x14901B, size: 0x8, addend: 0x0, symName: __ZNSt8__format18__write_escape_seqINS_10_Sink_iterIcEEcEET_S3_jSt17basic_string_viewIT0_St11char_traitsIS5_EE.constprop.0, symObjAddr: 0x4C60, symBinAddr: 0x10001E7C0, symSize: 0x100 }
  - { offset: 0x149380, size: 0x8, addend: 0x0, symName: __ZNSt8__format22__write_padded_as_specIcNS_10_Sink_iterIcEEEET0_St17basic_string_viewINSt13type_identityIT_E4typeESt11char_traitsIS8_EEmRSt20basic_format_contextIS3_S6_ERKNS_5_SpecIS6_EENS_6_AlignE.constprop.0, symObjAddr: 0x5244, symBinAddr: 0x10001ECE4, symSize: 0xA4 }
  - { offset: 0x14948C, size: 0x8, addend: 0x0, symName: __ZNKSt8__format15__formatter_intIcE6formatIiNS_10_Sink_iterIcEEEENSt20basic_format_contextIT0_cE8iteratorET_RS7_, symObjAddr: 0x68A0, symBinAddr: 0x10001EDA0, symSize: 0x46C }
  - { offset: 0x1499BB, size: 0x8, addend: 0x0, symName: __ZNKSt8__format15__formatter_intIcE6formatIxNS_10_Sink_iterIcEEEENSt20basic_format_contextIT0_cE8iteratorET_RS7_, symObjAddr: 0x6D0C, symBinAddr: 0x10001F20C, symSize: 0x45C }
  - { offset: 0x149EE7, size: 0x8, addend: 0x0, symName: __ZNKSt8__format14__formatter_fpIcE11_M_localizeB5cxx11ESt17basic_string_viewIcSt11char_traitsIcEEcRKSt6locale.isra.0, symObjAddr: 0x7F80, symBinAddr: 0x10001F680, symSize: 0x284 }
  - { offset: 0x14A904, size: 0x8, addend: 0x0, symName: __ZNSt8__format15__do_vformat_toINS_10_Sink_iterIcEEcSt20basic_format_contextIS2_cEEET_S5_St17basic_string_viewIT0_St11char_traitsIS7_EERKSt17basic_format_argsIT1_EPKSt6locale.isra.0, symObjAddr: 0xBF20, symBinAddr: 0x10001F920, symSize: 0x6EC }
  - { offset: 0x14BB32, size: 0x8, addend: 0x0, symName: __ZSt7printlnIJRdEEvP7__sFILESt19basic_format_stringIcJDpNSt13type_identityIT_E4typeEEEDpOS5_.isra.0, symObjAddr: 0xCDC4, symBinAddr: 0x100020624, symSize: 0x1FC }
  - { offset: 0x14C85A, size: 0x8, addend: 0x0, symName: ___udivti3, symObjAddr: 0x0, symBinAddr: 0x100022560, symSize: 0x344 }
  - { offset: 0x14C9A7, size: 0x8, addend: 0x0, symName: ___udivti3, symObjAddr: 0x0, symBinAddr: 0x100022560, symSize: 0x344 }
  - { offset: 0x14C9E3, size: 0x8, addend: 0x0, symName: ___udivti3, symObjAddr: 0x0, symBinAddr: 0x100022560, symSize: 0x344 }
...
